; Function Attrs: mustprogress uwtable
define noundef i32 @uloc_getDisplayLanguage_77(ptr noundef %0, ptr noundef %1, ptr noundef %2, i32 noundef %3, ptr noundef %4) local_unnamed_addr #1 personality ptr @__gxx_personality_v0 {
  %6 = alloca i32, align 4
  %7 = alloca %"class.icu_77::CharString", align 8
  %8 = alloca %"class.icu_77::StringPiece", align 8
  call void @llvm.lifetime.start.p0(i64 16, ptr nonnull %8)
  %9 = load i32, ptr %4, align 4, !tbaa !13
  %10 = icmp slt i32 %9, 1
  br i1 %10, label %11, label %_ZN12_GLOBAL__N_127_getDisplayNameForComponentEPKcS1_PDsiPFN6icu_7710CharStringESt17basic_string_viewIcSt11char_traitsIcEER10UErrorCodeES1_SA_.exit

11:                                               ; preds = %5
  call void @llvm.lifetime.start.p0(i64 4, ptr nonnull %6) #14
  %12 = icmp slt i32 %3, 0
  br i1 %12, label %16, label %13

13:                                               ; preds = %11
  %14 = icmp ne i32 %3, 0
  %15 = icmp eq ptr %2, null
  %or.cond.i = and i1 %15, %14
  br i1 %or.cond.i, label %16, label %17

16:                                               ; preds = %13, %11
  store i32 1, ptr %4, align 4, !tbaa !13
  br label %40

17:                                               ; preds = %13
  %18 = icmp eq ptr %0, null
  br i1 %18, label %19, label %21

19:                                               ; preds = %17
  %20 = tail call ptr @uloc_getDefault_77()
  br label %21

21:                                               ; preds = %19, %17
  %.024.i = phi ptr [ %20, %19 ], [ %0, %17 ]
  store i32 0, ptr %6, align 4, !tbaa !13
  call void @llvm.lifetime.start.p0(i64 64, ptr nonnull %7) #14
  %22 = tail call noundef i64 @strlen(ptr noundef nonnull dereferenceable(1) %.024.i) #14
  call void @_Z22ulocimp_getLanguage_77St17basic_string_viewIcSt11char_traitsIcEER10UErrorCode(ptr dead_on_unwind nonnull writable sret(%"class.icu_77::CharString") align 8 %7, i64 %22, ptr nonnull %.024.i, ptr noundef nonnull align 4 dereferenceable(4) %6), !callees !19
  %23 = load i32, ptr %6, align 4, !tbaa !13
  %24 = icmp slt i32 %23, 1
  br i1 %24, label %26, label %25

25:                                               ; preds = %21
  store i32 1, ptr %4, align 4, !tbaa !13
  br label %39

26:                                               ; preds = %21
  %27 = getelementptr inbounds nuw i8, ptr %7, i64 56
  %28 = load i32, ptr %27, align 8, !tbaa !20
  %.not.i = icmp eq i32 %28, 0
  br i1 %.not.i, label %29, label %_ZN6icu_7710CharString6appendENS_11StringPieceER10UErrorCode.exit.i

29:                                               ; preds = %26
  invoke void @_ZN6icu_7711StringPieceC1EPKc(ptr noundef nonnull align 8 dereferenceable(12) %8, ptr noundef nonnull @.str.2)
          to label %30 unwind label %35

30:                                               ; preds = %29
  %31 = load ptr, ptr %8, align 8
  %32 = getelementptr inbounds nuw i8, ptr %8, i64 8
  %33 = load i32, ptr %32, align 8
  %34 = invoke noundef nonnull align 8 dereferenceable(60) ptr @_ZN6icu_7710CharString6appendEPKciR10UErrorCode(ptr noundef nonnull align 8 dereferenceable(60) %7, ptr noundef %31, i32 noundef %33, ptr noundef nonnull align 4 dereferenceable(4) %4)
          to label %_ZN6icu_7710CharString6appendENS_11StringPieceER10UErrorCode.exit.i unwind label %35

35:                                               ; preds = %_ZN6icu_7710CharString6appendENS_11StringPieceER10UErrorCode.exit.i, %30, %29
  %36 = landingpad { ptr, i32 }
          cleanup
  call void @_ZN6icu_7715MaybeStackArrayIcLi40EED1Ev(ptr noundef nonnull align 8 dereferenceable(60) %7) #14
  call void @llvm.lifetime.end.p0(i64 64, ptr nonnull %7) #14
  call void @llvm.lifetime.end.p0(i64 4, ptr nonnull %6) #14
  resume { ptr, i32 } %36

_ZN6icu_7710CharString6appendENS_11StringPieceER10UErrorCode.exit.i: ; preds = %30, %26
  %37 = load ptr, ptr %7, align 8, !tbaa !3
  %38 = invoke fastcc noundef i32 @_ZN12_GLOBAL__N_119_getStringOrCopyKeyEPKcS1_S1_S1_S1_S1_PDsiR10UErrorCode(ptr noundef nonnull @.str, ptr noundef %1, ptr noundef nonnull @_ZN12_GLOBAL__N_111_kLanguagesE, ptr noundef null, ptr noundef %37, ptr noundef %37, ptr noundef %2, i32 noundef %3, ptr noundef nonnull align 4 dereferenceable(4) %4)
          to label %39 unwind label %35

39:                                               ; preds = %_ZN6icu_7710CharString6appendENS_11StringPieceER10UErrorCode.exit.i, %25
  %.2.i = phi i32 [ 0, %25 ], [ %38, %_ZN6icu_7710CharString6appendENS_11StringPieceER10UErrorCode.exit.i ]
  call void @_ZN6icu_7715MaybeStackArrayIcLi40EED1Ev(ptr noundef nonnull align 8 dereferenceable(60) %7) #14
  call void @llvm.lifetime.end.p0(i64 64, ptr nonnull %7) #14
  br label %40

40:                                               ; preds = %39, %16
  %.1.i = phi i32 [ 0, %16 ], [ %.2.i, %39 ]
  call void @llvm.lifetime.end.p0(i64 4, ptr nonnull %6) #14
  br label %_ZN12_GLOBAL__N_127_getDisplayNameForComponentEPKcS1_PDsiPFN6icu_7710CharStringESt17basic_string_viewIcSt11char_traitsIcEER10UErrorCodeES1_SA_.exit

_ZN12_GLOBAL__N_127_getDisplayNameForComponentEPKcS1_PDsiPFN6icu_7710CharStringESt17basic_string_viewIcSt11char_traitsIcEER10UErrorCodeES1_SA_.exit: ; preds = %5, %40
  %.0.i = phi i32 [ %.1.i, %40 ], [ 0, %5 ]
  call void @llvm.lifetime.end.p0(i64 16, ptr nonnull %8)
  ret i32 %.0.i
}